target datalayout = "e-m:e-p270:32:32-p271:32:32-p272:64:64-i64:64-i128:128-f80:128-n8:16:32:64-S128"
target triple = "x86_64-pc-linux-gnu"

%"struct.std::_List_const_iterator" = type { ptr }
%"struct.clang::format::UnwrappedLine" = type <{ %"class.std::__cxx11::list", i32, i32, i8, i8, i8, i8, i32, i8, i8, i8, [5 x i8], i64, i64, i32, [4 x i8] }>
%"class.std::__cxx11::list" = type { %"class.std::__cxx11::_List_base" }
%"class.std::__cxx11::_List_base" = type { %"struct.std::__cxx11::_List_base<clang::format::UnwrappedLineNode, std::allocator<clang::format::UnwrappedLineNode>>::_List_impl" }
%"struct.std::__cxx11::_List_base<clang::format::UnwrappedLineNode, std::allocator<clang::format::UnwrappedLineNode>>::_List_impl" = type { %"struct.std::__detail::_List_node_header" }
%"struct.std::__detail::_List_node_header" = type { %"struct.std::__detail::_List_node_base", i64 }
%"struct.std::__detail::_List_node_base" = type { ptr, ptr }
%"struct.clang::format::UnwrappedLineNode" = type { ptr, %"class.llvm::SmallVector.155" }
%"class.llvm::SmallVector.155" = type { %"class.llvm::SmallVectorImpl" }
%"class.llvm::SmallVectorImpl" = type { %"class.llvm::SmallVectorTemplateBase" }
%"class.llvm::SmallVectorTemplateBase" = type { %"class.llvm::SmallVectorTemplateCommon" }
%"class.llvm::SmallVectorTemplateCommon" = type { %"class.llvm::SmallVectorBase" }
%"class.llvm::SmallVectorBase" = type { ptr, i32, i32 }
%"struct.std::_List_iterator" = type { ptr }
%"struct.std::_List_node" = type { %"struct.std::__detail::_List_node_base", %"struct.__gnu_cxx::__aligned_membuf.227" }
%"struct.__gnu_cxx::__aligned_membuf.227" = type { [24 x i8] }

; Function Attrs: mustprogress nounwind uwtable
define linkonce_odr hidden noundef ptr @_ZNK4llvm25SmallVectorTemplateCommonIPN5clang6format11FormatTokenEvE10getFirstElEv(ptr noundef nonnull align 8 dereferenceable(16) %0) #0 comdat align 2 {
  %2 = alloca ptr, align 8
  store ptr %0, ptr %2, align 8
  %3 = load ptr, ptr %2, align 8
  %4 = getelementptr inbounds i8, ptr %3, i64 16
  ret ptr %4
}

; Function Attrs: mustprogress nounwind uwtable
define linkonce_odr hidden void @_ZN4llvm25SmallVectorTemplateCommonIPN5clang6format11FormatTokenEvE8grow_podEmm(ptr noundef nonnull align 8 dereferenceable(16) %0, i64 noundef %1, i64 noundef %2) #0 comdat align 2 {
  %4 = alloca ptr, align 8
  %5 = alloca i64, align 8
  %6 = alloca i64, align 8
  store ptr %0, ptr %4, align 8
  store i64 %1, ptr %5, align 8
  store i64 %2, ptr %6, align 8
  %7 = load ptr, ptr %4, align 8
  %8 = call noundef ptr @_ZNK4llvm25SmallVectorTemplateCommonIPN5clang6format11FormatTokenEvE10getFirstElEv(ptr noundef nonnull align 8 dereferenceable(16) %7)
  %9 = load i64, ptr %5, align 8
  %10 = load i64, ptr %6, align 8
  call void @_ZN4llvm15SmallVectorBaseIjE8grow_podEPvmm(ptr noundef nonnull align 8 dereferenceable(16) %7, ptr noundef %8, i64 noundef %9, i64 noundef %10)
  ret void
}

; Function Attrs: mustprogress nounwind uwtable
define linkonce_odr hidden void @_ZN4llvm23SmallVectorTemplateBaseIPN5clang6format11FormatTokenELb1EE4growEm(ptr noundef nonnull align 8 dereferenceable(16) %0, i64 noundef %1) #0 comdat align 2 {
  %3 = alloca ptr, align 8
  %4 = alloca i64, align 8
  store ptr %0, ptr %3, align 8
  store i64 %1, ptr %4, align 8
  %5 = load ptr, ptr %3, align 8
  %6 = load i64, ptr %4, align 8
  call void @_ZN4llvm25SmallVectorTemplateCommonIPN5clang6format11FormatTokenEvE8grow_podEmm(ptr noundef nonnull align 8 dereferenceable(16) %5, i64 noundef %6, i64 noundef 8)
  ret void
}

; Function Attrs: mustprogress nounwind uwtable
define linkonce_odr hidden noundef ptr @_ZN9__gnu_cxx16__aligned_membufIN5clang6format17UnwrappedLineNodeEE7_M_addrEv(ptr noundef nonnull align 8 dereferenceable(24) %0) #0 comdat align 2 {
  %2 = alloca ptr, align 8
  store ptr %0, ptr %2, align 8
  %3 = load ptr, ptr %2, align 8
  %4 = getelementptr inbounds nuw %"struct.__gnu_cxx::__aligned_membuf.227", ptr %3, i32 0, i32 0
  ret ptr %4
}

; Function Attrs: mustprogress nounwind uwtable
define linkonce_odr hidden noundef ptr @_ZN4llvm25SmallVectorTemplateCommonIPN5clang6format11FormatTokenEvE5beginEv(ptr noundef nonnull align 8 dereferenceable(16) %0) #0 comdat align 2 {
  %2 = alloca ptr, align 8
  store ptr %0, ptr %2, align 8
  %3 = load ptr, ptr %2, align 8
  %4 = getelementptr inbounds nuw %"class.llvm::SmallVectorBase", ptr %3, i32 0, i32 0
  %5 = load ptr, ptr %4, align 8
  ret ptr %5
}

; Function Attrs: mustprogress nounwind uwtable
define linkonce_odr hidden noundef ptr @_ZN4llvm25SmallVectorTemplateCommonIPN5clang6format11FormatTokenEvE32reserveForParamAndGetAddressImplINS_23SmallVectorTemplateBaseIS4_Lb1EEEEEPKS4_PT_RS9_m(ptr noundef %0, ptr noundef nonnull align 8 dereferenceable(8) %1, i64 noundef %2) #0 comdat align 2 {
  %4 = alloca ptr, align 8
  %5 = alloca ptr, align 8
  %6 = alloca ptr, align 8
  %7 = alloca i64, align 8
  %8 = alloca i64, align 8
  %9 = alloca i8, align 1
  %10 = alloca i64, align 8
  store ptr %0, ptr %5, align 8
  store ptr %1, ptr %6, align 8
  store i64 %2, ptr %7, align 8
  %11 = load ptr, ptr %5, align 8
  %12 = call noundef i64 @_ZNK4llvm15SmallVectorBaseIjE4sizeEv(ptr noundef nonnull align 8 dereferenceable(16) %11)
  %13 = load i64, ptr %7, align 8
  %14 = add i64 %12, %13
  store i64 %14, ptr %8, align 8
  %15 = load i64, ptr %8, align 8
  %16 = load ptr, ptr %5, align 8
  %17 = call noundef i64 @_ZNK4llvm15SmallVectorBaseIjE8capacityEv(ptr noundef nonnull align 8 dereferenceable(16) %16)
  %18 = icmp ule i64 %15, %17
  br i1 %18, label %19, label %21

19:                                               ; preds = %3
  %20 = load ptr, ptr %6, align 8
  store ptr %20, ptr %4, align 8
  br label %35

21:                                               ; preds = %3
  store i8 0, ptr %9, align 1
  store i64 -1, ptr %10, align 8
  %22 = load ptr, ptr %5, align 8
  %23 = load i64, ptr %8, align 8
  call void @_ZN4llvm23SmallVectorTemplateBaseIPN5clang6format11FormatTokenELb1EE4growEm(ptr noundef nonnull align 8 dereferenceable(16) %22, i64 noundef %23)
  %24 = load i8, ptr %9, align 1
  %25 = trunc i8 %24 to i1
  br i1 %25, label %26, label %31

26:                                               ; preds = %21
  %27 = load ptr, ptr %5, align 8
  %28 = call noundef ptr @_ZN4llvm25SmallVectorTemplateCommonIPN5clang6format11FormatTokenEvE5beginEv(ptr noundef nonnull align 8 dereferenceable(16) %27)
  %29 = load i64, ptr %10, align 8
  %30 = getelementptr inbounds ptr, ptr %28, i64 %29
  br label %33

31:                                               ; preds = %21
  %32 = load ptr, ptr %6, align 8
  br label %33

33:                                               ; preds = %31, %26
  %34 = phi ptr [ %30, %26 ], [ %32, %31 ]
  store ptr %34, ptr %4, align 8
  br label %35

35:                                               ; preds = %33, %19
  %36 = load ptr, ptr %4, align 8
  ret ptr %36
}

; Function Attrs: mustprogress nounwind uwtable
define linkonce_odr hidden noundef ptr @_ZN9__gnu_cxx16__aligned_membufIN5clang6format17UnwrappedLineNodeEE6_M_ptrEv(ptr noundef nonnull align 8 dereferenceable(24) %0) #0 comdat align 2 {
  %2 = alloca ptr, align 8
  store ptr %0, ptr %2, align 8
  %3 = load ptr, ptr %2, align 8
  %4 = call noundef ptr @_ZN9__gnu_cxx16__aligned_membufIN5clang6format17UnwrappedLineNodeEE7_M_addrEv(ptr noundef nonnull align 8 dereferenceable(24) %3) #13
  ret ptr %4
}

; Function Attrs: mustprogress nounwind uwtable
define linkonce_odr hidden void @_ZNSt20_List_const_iteratorIN5clang6format17UnwrappedLineNodeEEC2EPKNSt8__detail15_List_node_baseE(ptr noundef nonnull align 8 dereferenceable(8) %0, ptr noundef %1) unnamed_addr #0 comdat align 2 {
  %3 = alloca ptr, align 8
  %4 = alloca ptr, align 8
  store ptr %0, ptr %3, align 8
  store ptr %1, ptr %4, align 8
  %5 = load ptr, ptr %3, align 8
  %6 = getelementptr inbounds nuw %"struct.std::_List_const_iterator", ptr %5, i32 0, i32 0
  %7 = load ptr, ptr %4, align 8
  store ptr %7, ptr %6, align 8
  ret void
}

; Function Attrs: mustprogress nounwind uwtable
define linkonce_odr hidden noundef ptr @_ZN4llvm25SmallVectorTemplateCommonIPN5clang6format11FormatTokenEvE3endEv(ptr noundef nonnull align 8 dereferenceable(16) %0) #0 comdat align 2 {
  %2 = alloca ptr, align 8
  store ptr %0, ptr %2, align 8
  %3 = load ptr, ptr %2, align 8
  %4 = call noundef ptr @_ZN4llvm25SmallVectorTemplateCommonIPN5clang6format11FormatTokenEvE5beginEv(ptr noundef nonnull align 8 dereferenceable(16) %3)
  %5 = call noundef i64 @_ZNK4llvm15SmallVectorBaseIjE4sizeEv(ptr noundef nonnull align 8 dereferenceable(16) %3)
  %6 = getelementptr inbounds ptr, ptr %4, i64 %5
  ret ptr %6
}

; Function Attrs: mustprogress nounwind uwtable
define linkonce_odr hidden noundef ptr @_ZN4llvm23SmallVectorTemplateBaseIPN5clang6format11FormatTokenELb1EE28reserveForParamAndGetAddressERS4_m(ptr noundef nonnull align 8 dereferenceable(16) %0, ptr noundef nonnull align 8 dereferenceable(8) %1, i64 noundef %2) #0 comdat align 2 {
  %4 = alloca ptr, align 8
  %5 = alloca ptr, align 8
  %6 = alloca i64, align 8
  store ptr %0, ptr %4, align 8
  store ptr %1, ptr %5, align 8
  store i64 %2, ptr %6, align 8
  %7 = load ptr, ptr %4, align 8
  %8 = load ptr, ptr %5, align 8
  %9 = load i64, ptr %6, align 8
  %10 = call noundef ptr @_ZN4llvm25SmallVectorTemplateCommonIPN5clang6format11FormatTokenEvE32reserveForParamAndGetAddressImplINS_23SmallVectorTemplateBaseIS4_Lb1EEEEEPKS4_PT_RS9_m(ptr noundef %7, ptr noundef nonnull align 8 dereferenceable(8) %8, i64 noundef %9)
  ret ptr %10
}

; Function Attrs: mustprogress nounwind uwtable
define linkonce_odr hidden noundef ptr @_ZNSt10_List_nodeIN5clang6format17UnwrappedLineNodeEE9_M_valptrEv(ptr noundef nonnull align 8 dereferenceable(40) %0) #0 comdat align 2 {
  %2 = alloca ptr, align 8
  store ptr %0, ptr %2, align 8
  %3 = load ptr, ptr %2, align 8
  %4 = getelementptr inbounds nuw %"struct.std::_List_node", ptr %3, i32 0, i32 1
  %5 = call noundef ptr @_ZN9__gnu_cxx16__aligned_membufIN5clang6format17UnwrappedLineNodeEE6_M_ptrEv(ptr noundef nonnull align 8 dereferenceable(24) %4) #13
  ret ptr %5
}

; Function Attrs: mustprogress nounwind uwtable
define linkonce_odr hidden noundef nonnull align 8 dereferenceable(8) ptr @_ZNSt14_List_iteratorIN5clang6format17UnwrappedLineNodeEEppEv(ptr noundef nonnull align 8 dereferenceable(8) %0) #0 comdat align 2 {
  %2 = alloca ptr, align 8
  store ptr %0, ptr %2, align 8
  %3 = load ptr, ptr %2, align 8
  %4 = getelementptr inbounds nuw %"struct.std::_List_iterator", ptr %3, i32 0, i32 0
  %5 = load ptr, ptr %4, align 8
  %6 = getelementptr inbounds nuw %"struct.std::__detail::_List_node_base", ptr %5, i32 0, i32 0
  %7 = load ptr, ptr %6, align 8
  %8 = getelementptr inbounds nuw %"struct.std::_List_iterator", ptr %3, i32 0, i32 0
  store ptr %7, ptr %8, align 8
  ret ptr %3
}

; Function Attrs: mustprogress nounwind uwtable
define linkonce_odr hidden ptr @_ZNKSt7__cxx114listIN5clang6format17UnwrappedLineNodeESaIS3_EE3endEv(ptr noundef nonnull align 8 dereferenceable(24) %0) #0 comdat align 2 {
  %2 = alloca %"struct.std::_List_const_iterator", align 8
  %3 = alloca ptr, align 8
  store ptr %0, ptr %3, align 8
  %4 = load ptr, ptr %3, align 8
  %5 = getelementptr inbounds nuw %"class.std::__cxx11::_List_base", ptr %4, i32 0, i32 0
  %6 = getelementptr inbounds nuw %"struct.std::__cxx11::_List_base<clang::format::UnwrappedLineNode, std::allocator<clang::format::UnwrappedLineNode>>::_List_impl", ptr %5, i32 0, i32 0
  call void @_ZNSt20_List_const_iteratorIN5clang6format17UnwrappedLineNodeEEC2EPKNSt8__detail15_List_node_baseE(ptr noundef nonnull align 8 dereferenceable(8) %2, ptr noundef %6) #13
  %7 = getelementptr inbounds nuw %"struct.std::_List_const_iterator", ptr %2, i32 0, i32 0
  %8 = load ptr, ptr %7, align 8
  ret ptr %8
}

; Function Attrs: mustprogress nounwind uwtable
define linkonce_odr hidden ptr @_ZNKSt7__cxx114listIN5clang6format17UnwrappedLineNodeESaIS3_EE5beginEv(ptr noundef nonnull align 8 dereferenceable(24) %0) #0 comdat align 2 {
  %2 = alloca %"struct.std::_List_const_iterator", align 8
  %3 = alloca ptr, align 8
  store ptr %0, ptr %3, align 8
  %4 = load ptr, ptr %3, align 8
  %5 = getelementptr inbounds nuw %"class.std::__cxx11::_List_base", ptr %4, i32 0, i32 0
  %6 = getelementptr inbounds nuw %"struct.std::__cxx11::_List_base<clang::format::UnwrappedLineNode, std::allocator<clang::format::UnwrappedLineNode>>::_List_impl", ptr %5, i32 0, i32 0
  %7 = getelementptr inbounds nuw %"struct.std::__detail::_List_node_base", ptr %6, i32 0, i32 0
  %8 = load ptr, ptr %7, align 8
  call void @_ZNSt20_List_const_iteratorIN5clang6format17UnwrappedLineNodeEEC2EPKNSt8__detail15_List_node_baseE(ptr noundef nonnull align 8 dereferenceable(8) %2, ptr noundef %8) #13
  %9 = getelementptr inbounds nuw %"struct.std::_List_const_iterator", ptr %2, i32 0, i32 0
  %10 = load ptr, ptr %9, align 8
  ret ptr %10
}

; Function Attrs: mustprogress nounwind uwtable
define linkonce_odr hidden noundef ptr @_ZN4llvm25SmallVectorTemplateCommonIN5clang6format13UnwrappedLineEvE3endEv(ptr noundef nonnull align 8 dereferenceable(16) %0) #0 comdat align 2 {
  %2 = alloca ptr, align 8
  store ptr %0, ptr %2, align 8
  %3 = load ptr, ptr %2, align 8
  %4 = call noundef ptr @_ZN4llvm25SmallVectorTemplateCommonIN5clang6format13UnwrappedLineEvE5beginEv(ptr noundef nonnull align 8 dereferenceable(16) %3)
  %5 = call noundef i64 @_ZNK4llvm15SmallVectorBaseIjE4sizeEv(ptr noundef nonnull align 8 dereferenceable(16) %3)
  %6 = getelementptr inbounds %"struct.clang::format::UnwrappedLine", ptr %4, i64 %5
  ret ptr %6
}

; Function Attrs: mustprogress nounwind uwtable
define linkonce_odr hidden noundef ptr @_ZN4llvm25SmallVectorTemplateCommonIN5clang6format13UnwrappedLineEvE5beginEv(ptr noundef nonnull align 8 dereferenceable(16) %0) #0 comdat align 2 {
  %2 = alloca ptr, align 8
  store ptr %0, ptr %2, align 8
  %3 = load ptr, ptr %2, align 8
  %4 = getelementptr inbounds nuw %"class.llvm::SmallVectorBase", ptr %3, i32 0, i32 0
  %5 = load ptr, ptr %4, align 8
  ret ptr %5
}

; Function Attrs: mustprogress nounwind uwtable
define linkonce_odr hidden void @_ZN4llvm23SmallVectorTemplateBaseIPN5clang6format11FormatTokenELb1EE9push_backES4_(ptr noundef nonnull align 8 dereferenceable(16) %0, ptr noundef %1) #0 comdat align 2 {
  %3 = alloca ptr, align 8
  %4 = alloca ptr, align 8
  %5 = alloca ptr, align 8
  store ptr %0, ptr %3, align 8
  store ptr %1, ptr %4, align 8
  %6 = load ptr, ptr %3, align 8
  %7 = call noundef ptr @_ZN4llvm23SmallVectorTemplateBaseIPN5clang6format11FormatTokenELb1EE28reserveForParamAndGetAddressERS4_m(ptr noundef nonnull align 8 dereferenceable(16) %6, ptr noundef nonnull align 8 dereferenceable(8) %4, i64 noundef 1)
  store ptr %7, ptr %5, align 8
  %8 = call noundef ptr @_ZN4llvm25SmallVectorTemplateCommonIPN5clang6format11FormatTokenEvE3endEv(ptr noundef nonnull align 8 dereferenceable(16) %6)
  %9 = load ptr, ptr %5, align 8
  call void @llvm.memcpy.p0.p0.i64(ptr align 1 %8, ptr align 8 %9, i64 8, i1 false)
  %10 = call noundef i64 @_ZNK4llvm15SmallVectorBaseIjE4sizeEv(ptr noundef nonnull align 8 dereferenceable(16) %6)
  %11 = add i64 %10, 1
  call void @_ZN4llvm15SmallVectorBaseIjE8set_sizeEm(ptr noundef nonnull align 8 dereferenceable(16) %6, i64 noundef %11)
  ret void
}

; Function Attrs: mustprogress nounwind uwtable
define linkonce_odr hidden noundef ptr @_ZNKSt14_List_iteratorIN5clang6format17UnwrappedLineNodeEEptEv(ptr noundef nonnull align 8 dereferenceable(8) %0) #0 comdat align 2 {
  %2 = alloca ptr, align 8
  store ptr %0, ptr %2, align 8
  %3 = load ptr, ptr %2, align 8
  %4 = getelementptr inbounds nuw %"struct.std::_List_iterator", ptr %3, i32 0, i32 0
  %5 = load ptr, ptr %4, align 8
  %6 = call noundef ptr @_ZNSt10_List_nodeIN5clang6format17UnwrappedLineNodeEE9_M_valptrEv(ptr noundef nonnull align 8 dereferenceable(40) %5)
  ret ptr %6
}

; Function Attrs: mustprogress nounwind uwtable
define linkonce_odr noundef zeroext i1 @_ZStneRKSt14_List_iteratorIN5clang6format17UnwrappedLineNodeEES5_(ptr noundef nonnull align 8 dereferenceable(8) %0, ptr noundef nonnull align 8 dereferenceable(8) %1) #0 comdat {
  %3 = alloca ptr, align 8
  %4 = alloca ptr, align 8
  store ptr %0, ptr %3, align 8
  store ptr %1, ptr %4, align 8
  %5 = load ptr, ptr %3, align 8
  %6 = getelementptr inbounds nuw %"struct.std::_List_iterator", ptr %5, i32 0, i32 0
  %7 = load ptr, ptr %6, align 8
  %8 = load ptr, ptr %4, align 8
  %9 = getelementptr inbounds nuw %"struct.std::_List_iterator", ptr %8, i32 0, i32 0
  %10 = load ptr, ptr %9, align 8
  %11 = icmp ne ptr %7, %10
  ret i1 %11
}

; Function Attrs: mustprogress nounwind uwtable
define internal void @_ZN5clang6format12_GLOBAL__N_110pushTokensISt14_List_iteratorINS0_17UnwrappedLineNodeEEEEvT_S6_RN4llvm15SmallVectorImplIPNS0_11FormatTokenEEE(ptr %0, ptr %1, ptr noundef nonnull align 8 dereferenceable(16) %2) #0 {
  %4 = alloca %"struct.std::_List_iterator", align 8
  %5 = alloca %"struct.std::_List_iterator", align 8
  %6 = alloca ptr, align 8
  %7 = alloca %"struct.std::_List_iterator", align 8
  %8 = alloca ptr, align 8
  %9 = alloca ptr, align 8
  %10 = alloca ptr, align 8
  %11 = alloca ptr, align 8
  %12 = alloca %"struct.std::_List_const_iterator", align 8
  %13 = alloca %"struct.std::_List_const_iterator", align 8
  %14 = getelementptr inbounds nuw %"struct.std::_List_iterator", ptr %4, i32 0, i32 0
  store ptr %0, ptr %14, align 8
  %15 = getelementptr inbounds nuw %"struct.std::_List_iterator", ptr %5, i32 0, i32 0
  store ptr %1, ptr %15, align 8
  store ptr %2, ptr %6, align 8
  call void @llvm.memcpy.p0.p0.i64(ptr align 8 %7, ptr align 8 %4, i64 8, i1 false)
  br label %16

16:                                               ; preds = %52, %3
  %17 = call noundef zeroext i1 @_ZStneRKSt14_List_iteratorIN5clang6format17UnwrappedLineNodeEES5_(ptr noundef nonnull align 8 dereferenceable(8) %7, ptr noundef nonnull align 8 dereferenceable(8) %5) #13
  br i1 %17, label %18, label %54

18:                                               ; preds = %16
  %19 = load ptr, ptr %6, align 8
  %20 = call noundef ptr @_ZNKSt14_List_iteratorIN5clang6format17UnwrappedLineNodeEEptEv(ptr noundef nonnull align 8 dereferenceable(8) %7) #13
  %21 = getelementptr inbounds nuw %"struct.clang::format::UnwrappedLineNode", ptr %20, i32 0, i32 0
  %22 = load ptr, ptr %21, align 8
  call void @_ZN4llvm23SmallVectorTemplateBaseIPN5clang6format11FormatTokenELb1EE9push_backES4_(ptr noundef nonnull align 8 dereferenceable(16) %19, ptr noundef %22)
  %23 = call noundef ptr @_ZNKSt14_List_iteratorIN5clang6format17UnwrappedLineNodeEEptEv(ptr noundef nonnull align 8 dereferenceable(8) %7) #13
  %24 = getelementptr inbounds nuw %"struct.clang::format::UnwrappedLineNode", ptr %23, i32 0, i32 1
  store ptr %24, ptr %8, align 8
  %25 = load ptr, ptr %8, align 8
  %26 = call noundef ptr @_ZN4llvm25SmallVectorTemplateCommonIN5clang6format13UnwrappedLineEvE5beginEv(ptr noundef nonnull align 8 dereferenceable(16) %25)
  store ptr %26, ptr %9, align 8
  %27 = load ptr, ptr %8, align 8
  %28 = call noundef ptr @_ZN4llvm25SmallVectorTemplateCommonIN5clang6format13UnwrappedLineEvE3endEv(ptr noundef nonnull align 8 dereferenceable(16) %27)
  store ptr %28, ptr %10, align 8
  br label %29

29:                                               ; preds = %48, %18
  %30 = load ptr, ptr %9, align 8
  %31 = load ptr, ptr %10, align 8
  %32 = icmp ne ptr %30, %31
  br i1 %32, label %33, label %51

33:                                               ; preds = %29
  %34 = load ptr, ptr %9, align 8
  store ptr %34, ptr %11, align 8
  %35 = load ptr, ptr %11, align 8
  %36 = getelementptr inbounds nuw %"struct.clang::format::UnwrappedLine", ptr %35, i32 0, i32 0
  %37 = call ptr @_ZNKSt7__cxx114listIN5clang6format17UnwrappedLineNodeESaIS3_EE5beginEv(ptr noundef nonnull align 8 dereferenceable(24) %36) #13
  %38 = getelementptr inbounds nuw %"struct.std::_List_const_iterator", ptr %12, i32 0, i32 0
  store ptr %37, ptr %38, align 8
  %39 = load ptr, ptr %11, align 8
  %40 = getelementptr inbounds nuw %"struct.clang::format::UnwrappedLine", ptr %39, i32 0, i32 0
  %41 = call ptr @_ZNKSt7__cxx114listIN5clang6format17UnwrappedLineNodeESaIS3_EE3endEv(ptr noundef nonnull align 8 dereferenceable(24) %40) #13
  %42 = getelementptr inbounds nuw %"struct.std::_List_const_iterator", ptr %13, i32 0, i32 0
  store ptr %41, ptr %42, align 8
  %43 = load ptr, ptr %6, align 8
  %44 = getelementptr inbounds nuw %"struct.std::_List_const_iterator", ptr %12, i32 0, i32 0
  %45 = load ptr, ptr %44, align 8
  %46 = getelementptr inbounds nuw %"struct.std::_List_const_iterator", ptr %13, i32 0, i32 0
  %47 = load ptr, ptr %46, align 8
  call void @_ZN5clang6format12_GLOBAL__N_110pushTokensISt20_List_const_iteratorINS0_17UnwrappedLineNodeEEEEvT_S6_RN4llvm15SmallVectorImplIPNS0_11FormatTokenEEE(ptr %45, ptr %47, ptr noundef nonnull align 8 dereferenceable(16) %43)
  br label %48

48:                                               ; preds = %33
  %49 = load ptr, ptr %9, align 8
  %50 = getelementptr inbounds %"struct.clang::format::UnwrappedLine", ptr %49, i32 1
  store ptr %50, ptr %9, align 8
  br label %29

51:                                               ; preds = %29
  br label %52

52:                                               ; preds = %51
  %53 = call noundef nonnull align 8 dereferenceable(8) ptr @_ZNSt14_List_iteratorIN5clang6format17UnwrappedLineNodeEEppEv(ptr noundef nonnull align 8 dereferenceable(8) %7) #13
  br label %16, !llvm.loop !79

54:                                               ; preds = %16
  ret void
}